; Function Attrs: mustprogress uwtable
define hidden noundef ptr @_ZN5ceres8internal17BlockSparseMatrix14AllocateValuesEi(ptr nocapture noundef nonnull readonly align 8 dereferenceable(56) %0, i32 noundef %1) local_unnamed_addr #0 align 2 personality ptr @__gxx_personality_v0 {
  %3 = alloca %"class.google::base::CheckOpMessageBuilder", align 8
  %4 = alloca ptr, align 8
  %5 = alloca %"struct.google::CheckOpString", align 8
  %6 = alloca %"class.google::LogMessageFatal", align 8
  %7 = getelementptr inbounds i8, ptr %0, i64 8
  %8 = load i8, ptr %7, align 8
  %9 = and i8 %8, 1
  %.not = icmp eq i8 %9, 0
  br i1 %.not, label %10, label %16

10:                                               ; preds = %2
  %11 = zext nneg i32 %1 to i64
  %12 = icmp slt i32 %1, 0
  %13 = shl nuw nsw i64 %11, 3
  %14 = select i1 %12, i64 -1, i64 %13
  %15 = tail call noalias noundef nonnull ptr @_Znam(i64 noundef %14) #27
  br label %36

16:                                               ; preds = %2
  store ptr null, ptr %4, align 8
  %17 = sext i32 %1 to i64
  %18 = shl nsw i64 %17, 3
  %19 = call noundef i32 @cudaHostAlloc(ptr noundef nonnull %4, i64 noundef %18, i32 noundef 0)
  %20 = icmp eq i32 %19, 0
  br i1 %20, label %_ZN6google12Check_EQImplI9cudaErrorS1_EEPNSt7__cxx1112basic_stringIcSt11char_traitsIcESaIcEEERKT_RKT0_PKc.exit.thread, label %21

21:                                               ; preds = %16
  call void @llvm.lifetime.start.p0(i64 8, ptr nonnull %3)
  call void @_ZN6google4base21CheckOpMessageBuilderC1EPKc(ptr noundef nonnull align 8 dereferenceable(8) %3, ptr noundef nonnull @.str.36)
  %22 = load ptr, ptr %3, align 8
  %23 = invoke noundef nonnull align 8 dereferenceable(8) ptr @_ZNSolsEi(ptr noundef nonnull align 8 dereferenceable(8) %22, i32 noundef 0)
          to label %_ZN6google22MakeCheckOpValueStringI9cudaErrorEEvPSoRKT_.exit.i.i unwind label %28

_ZN6google22MakeCheckOpValueStringI9cudaErrorEEvPSoRKT_.exit.i.i: ; preds = %21
  %24 = invoke noundef ptr @_ZN6google4base21CheckOpMessageBuilder7ForVar2Ev(ptr noundef nonnull align 8 dereferenceable(8) %3)
          to label %25 unwind label %28

25:                                               ; preds = %_ZN6google22MakeCheckOpValueStringI9cudaErrorEEvPSoRKT_.exit.i.i
  %26 = invoke noundef nonnull align 8 dereferenceable(8) ptr @_ZNSolsEi(ptr noundef nonnull align 8 dereferenceable(8) %24, i32 noundef %19)
          to label %_ZN6google22MakeCheckOpValueStringI9cudaErrorEEvPSoRKT_.exit4.i.i unwind label %28

_ZN6google22MakeCheckOpValueStringI9cudaErrorEEvPSoRKT_.exit4.i.i: ; preds = %25
  %27 = invoke noundef ptr @_ZN6google4base21CheckOpMessageBuilder9NewStringB5cxx11Ev(ptr noundef nonnull align 8 dereferenceable(8) %3)
          to label %_ZN6google12Check_EQImplI9cudaErrorS1_EEPNSt7__cxx1112basic_stringIcSt11char_traitsIcESaIcEEERKT_RKT0_PKc.exit unwind label %28

28:                                               ; preds = %_ZN6google22MakeCheckOpValueStringI9cudaErrorEEvPSoRKT_.exit4.i.i, %25, %_ZN6google22MakeCheckOpValueStringI9cudaErrorEEvPSoRKT_.exit.i.i, %21
  %29 = landingpad { ptr, i32 }
          cleanup
  call void @_ZN6google4base21CheckOpMessageBuilderD1Ev(ptr noundef nonnull align 8 dereferenceable(8) %3) #26
  resume { ptr, i32 } %29

_ZN6google12Check_EQImplI9cudaErrorS1_EEPNSt7__cxx1112basic_stringIcSt11char_traitsIcESaIcEEERKT_RKT0_PKc.exit: ; preds = %_ZN6google22MakeCheckOpValueStringI9cudaErrorEEvPSoRKT_.exit4.i.i
  call void @_ZN6google4base21CheckOpMessageBuilderD1Ev(ptr noundef nonnull align 8 dereferenceable(8) %3) #26
  call void @llvm.lifetime.end.p0(i64 8, ptr nonnull %3)
  store ptr %27, ptr %5, align 8
  %.not7 = icmp eq ptr %27, null
  br i1 %.not7, label %_ZN6google12Check_EQImplI9cudaErrorS1_EEPNSt7__cxx1112basic_stringIcSt11char_traitsIcESaIcEEERKT_RKT0_PKc.exit.thread, label %30

30:                                               ; preds = %_ZN6google12Check_EQImplI9cudaErrorS1_EEPNSt7__cxx1112basic_stringIcSt11char_traitsIcESaIcEEERKT_RKT0_PKc.exit
  call void @_ZN6google15LogMessageFatalC1EPKciRKNS_13CheckOpStringE(ptr noundef nonnull align 8 dereferenceable(96) %6, ptr noundef nonnull @.str, i32 noundef 818, ptr noundef nonnull align 8 dereferenceable(8) %5)
  %31 = invoke noundef nonnull align 8 dereferenceable(8) ptr @_ZN6google10LogMessage6streamEv(ptr noundef nonnull align 8 dereferenceable(96) %6)
          to label %32 unwind label %33

32:                                               ; preds = %30
  call void @_ZN6google15LogMessageFatalD1Ev(ptr noundef nonnull align 8 dereferenceable(96) %6) #25
  unreachable

33:                                               ; preds = %30
  %34 = landingpad { ptr, i32 }
          cleanup
  call void @_ZN6google15LogMessageFatalD1Ev(ptr noundef nonnull align 8 dereferenceable(96) %6) #25
  unreachable

_ZN6google12Check_EQImplI9cudaErrorS1_EEPNSt7__cxx1112basic_stringIcSt11char_traitsIcESaIcEEERKT_RKT0_PKc.exit.thread: ; preds = %16, %_ZN6google12Check_EQImplI9cudaErrorS1_EEPNSt7__cxx1112basic_stringIcSt11char_traitsIcESaIcEEERKT_RKT0_PKc.exit
  %35 = load ptr, ptr %4, align 8
  br label %36

36:                                               ; preds = %_ZN6google12Check_EQImplI9cudaErrorS1_EEPNSt7__cxx1112basic_stringIcSt11char_traitsIcESaIcEEERKT_RKT0_PKc.exit.thread, %10
  %.0 = phi ptr [ %35, %_ZN6google12Check_EQImplI9cudaErrorS1_EEPNSt7__cxx1112basic_stringIcSt11char_traitsIcESaIcEEERKT_RKT0_PKc.exit.thread ], [ %15, %10 ]
  ret ptr %.0
}